; Function Attrs: mustprogress uwtable
define void @_ZN8facebook5velox17VectorStreamGroup5flushEPNS0_12OutputStreamE(ptr nocapture noundef nonnull readonly align 8 dereferenceable(168) %this, ptr noundef %out) local_unnamed_addr #0 align 2 {
entry:
  %serializer_ = getelementptr inbounds i8, ptr %this, i64 152
  %0 = load ptr, ptr %serializer_, align 8
  %vtable = load ptr, ptr %0, align 8
  %vfn = getelementptr inbounds i8, ptr %vtable, i64 56
  %1 = load ptr, ptr %vfn, align 8
  tail call void %1(ptr noundef nonnull align 8 dereferenceable(8) %0, ptr noundef %out)
  ret void
}